; ModuleID = '11/730.c'
source_filename = "11/730.c"
target datalayout = "e-m:e-p270:32:32-p271:32:32-p272:64:64-i64:64-f80:128-n8:16:32:64-S128"
target triple = "x86_64-pc-linux-gnu"

@__const.f1.a = private unnamed_addr constant [12 x i32] [i32 31, i32 29, i32 31, i32 30, i32 31, i32 30, i32 31, i32 31, i32 30, i32 31, i32 30, i32 31], align 16
@__const.f2.a = private unnamed_addr constant [12 x i32] [i32 31, i32 28, i32 31, i32 30, i32 31, i32 30, i32 31, i32 31, i32 30, i32 31, i32 30, i32 31], align 16
@.str = private unnamed_addr constant [7 x i8] c"%d%d%d\00", align 1
@.str.1 = private unnamed_addr constant [3 x i8] c"%d\00", align 1

; Function Attrs: noinline nounwind uwtable
define dso_local i32 @f1(i32 %0, i32 %1) #0 {
  %3 = alloca i32, align 4
  %4 = alloca i32, align 4
  %5 = alloca [12 x i32], align 16
  %6 = alloca i32, align 4
  %7 = alloca i32, align 4
  %8 = alloca i32, align 4
  store i32 %0, i32* %3, align 4
  store i32 %1, i32* %4, align 4
  %9 = bitcast [12 x i32]* %5 to i8*
  call void @llvm.memcpy.p0i8.p0i8.i64(i8* align 16 %9, i8* align 16 bitcast ([12 x i32]* @__const.f1.a to i8*), i64 48, i1 false)
  store i32 0, i32* %8, align 4
  store i32 0, i32* %6, align 4
  br label %10

10:                                               ; preds = %35, %2
  %11 = load i32, i32* %6, align 4
  %12 = icmp slt i32 %11, 12
  br i1 %12, label %13, label %38

13:                                               ; preds = %10
  %14 = load i32, i32* %3, align 4
  %15 = sub nsw i32 %14, 1
  %16 = load i32, i32* %6, align 4
  %17 = icmp eq i32 %15, %16
  br i1 %17, label %18, label %34

18:                                               ; preds = %13
  store i32 0, i32* %7, align 4
  br label %19

19:                                               ; preds = %30, %18
  %20 = load i32, i32* %7, align 4
  %21 = load i32, i32* %6, align 4
  %22 = icmp slt i32 %20, %21
  br i1 %22, label %23, label %33

23:                                               ; preds = %19
  %24 = load i32, i32* %8, align 4
  %25 = load i32, i32* %7, align 4
  %26 = sext i32 %25 to i64
  %27 = getelementptr inbounds [12 x i32], [12 x i32]* %5, i64 0, i64 %26
  %28 = load i32, i32* %27, align 4
  %29 = add nsw i32 %24, %28
  store i32 %29, i32* %8, align 4
  br label %30

30:                                               ; preds = %23
  %31 = load i32, i32* %7, align 4
  %32 = add nsw i32 %31, 1
  store i32 %32, i32* %7, align 4
  br label %19

33:                                               ; preds = %19
  br label %34

34:                                               ; preds = %33, %13
  br label %35

35:                                               ; preds = %34
  %36 = load i32, i32* %6, align 4
  %37 = add nsw i32 %36, 1
  store i32 %37, i32* %6, align 4
  br label %10

38:                                               ; preds = %10
  %39 = load i32, i32* %8, align 4
  %40 = load i32, i32* %4, align 4
  %41 = add nsw i32 %39, %40
  store i32 %41, i32* %8, align 4
  %42 = load i32, i32* %8, align 4
  ret i32 %42
}

; Function Attrs: argmemonly nounwind willreturn
declare void @llvm.memcpy.p0i8.p0i8.i64(i8* noalias nocapture writeonly, i8* noalias nocapture readonly, i64, i1 immarg) #1

; Function Attrs: noinline nounwind uwtable
define dso_local i32 @f2(i32 %0, i32 %1) #0 {
  %3 = alloca i32, align 4
  %4 = alloca i32, align 4
  %5 = alloca [12 x i32], align 16
  %6 = alloca i32, align 4
  %7 = alloca i32, align 4
  %8 = alloca i32, align 4
  store i32 %0, i32* %3, align 4
  store i32 %1, i32* %4, align 4
  %9 = bitcast [12 x i32]* %5 to i8*
  call void @llvm.memcpy.p0i8.p0i8.i64(i8* align 16 %9, i8* align 16 bitcast ([12 x i32]* @__const.f2.a to i8*), i64 48, i1 false)
  store i32 0, i32* %8, align 4
  store i32 0, i32* %6, align 4
  br label %10

10:                                               ; preds = %35, %2
  %11 = load i32, i32* %6, align 4
  %12 = icmp slt i32 %11, 12
  br i1 %12, label %13, label %38

13:                                               ; preds = %10
  %14 = load i32, i32* %3, align 4
  %15 = sub nsw i32 %14, 1
  %16 = load i32, i32* %6, align 4
  %17 = icmp eq i32 %15, %16
  br i1 %17, label %18, label %34

18:                                               ; preds = %13
  store i32 0, i32* %7, align 4
  br label %19

19:                                               ; preds = %30, %18
  %20 = load i32, i32* %7, align 4
  %21 = load i32, i32* %6, align 4
  %22 = icmp slt i32 %20, %21
  br i1 %22, label %23, label %33

23:                                               ; preds = %19
  %24 = load i32, i32* %8, align 4
  %25 = load i32, i32* %7, align 4
  %26 = sext i32 %25 to i64
  %27 = getelementptr inbounds [12 x i32], [12 x i32]* %5, i64 0, i64 %26
  %28 = load i32, i32* %27, align 4
  %29 = add nsw i32 %24, %28
  store i32 %29, i32* %8, align 4
  br label %30

30:                                               ; preds = %23
  %31 = load i32, i32* %7, align 4
  %32 = add nsw i32 %31, 1
  store i32 %32, i32* %7, align 4
  br label %19

33:                                               ; preds = %19
  br label %34

34:                                               ; preds = %33, %13
  br label %35

35:                                               ; preds = %34
  %36 = load i32, i32* %6, align 4
  %37 = add nsw i32 %36, 1
  store i32 %37, i32* %6, align 4
  br label %10

38:                                               ; preds = %10
  %39 = load i32, i32* %8, align 4
  %40 = load i32, i32* %4, align 4
  %41 = add nsw i32 %39, %40
  store i32 %41, i32* %8, align 4
  %42 = load i32, i32* %8, align 4
  ret i32 %42
}

; Function Attrs: noinline nounwind uwtable
define dso_local void @main() #0 {
  %1 = alloca i32, align 4
  %2 = alloca i32, align 4
  %3 = alloca i32, align 4
  %4 = alloca i32, align 4
  %5 = call i32 (i8*, ...) @__isoc99_scanf(i8* getelementptr inbounds ([7 x i8], [7 x i8]* @.str, i64 0, i64 0), i32* %1, i32* %2, i32* %3)
  %6 = load i32, i32* %1, align 4
  %7 = srem i32 %6, 100
  %8 = icmp ne i32 %7, 0
  br i1 %8, label %9, label %13

9:                                                ; preds = %0
  %10 = load i32, i32* %1, align 4
  %11 = srem i32 %10, 4
  %12 = icmp eq i32 %11, 0
  br i1 %12, label %17, label %13

13:                                               ; preds = %9, %0
  %14 = load i32, i32* %1, align 4
  %15 = srem i32 %14, 400
  %16 = icmp eq i32 %15, 0
  br i1 %16, label %17, label %21

17:                                               ; preds = %13, %9
  %18 = load i32, i32* %2, align 4
  %19 = load i32, i32* %3, align 4
  %20 = call i32 @f1(i32 %18, i32 %19)
  store i32 %20, i32* %4, align 4
  br label %25

21:                                               ; preds = %13
  %22 = load i32, i32* %2, align 4
  %23 = load i32, i32* %3, align 4
  %24 = call i32 @f2(i32 %22, i32 %23)
  store i32 %24, i32* %4, align 4
  br label %25

25:                                               ; preds = %21, %17
  %26 = load i32, i32* %4, align 4
  %27 = call i32 (i8*, ...) @printf(i8* getelementptr inbounds ([3 x i8], [3 x i8]* @.str.1, i64 0, i64 0), i32 %26)
  ret void
}

declare dso_local i32 @__isoc99_scanf(i8*, ...) #2

declare dso_local i32 @printf(i8*, ...) #2


!llvm.module.flags = !{!0}
!llvm.ident = !{!1}

!0 = !{i32 1, !"wchar_size", i32 4}
!1 = !{!"clang version 10.0.0-4ubuntu1 "}
