; ModuleID = 'source-C-CXX/10/730.c'
source_filename = "source-C-CXX/10/730.c"
target datalayout = "e-m:e-p270:32:32-p271:32:32-p272:64:64-i64:64-f80:128-n8:16:32:64-S128"
target triple = "x86_64-pc-linux-gnu"

@.str = private unnamed_addr constant [7 x i8] c"%d%d%d\00", align 1
@.str.1 = private unnamed_addr constant [3 x i8] c"%d\00", align 1
@switch.table.main = private unnamed_addr constant [11 x i32] [i32 31, i32 60, i32 91, i32 121, i32 152, i32 182, i32 213, i32 244, i32 274, i32 305, i32 335], align 4
@switch.table.main.2 = private unnamed_addr constant [11 x i32] [i32 31, i32 59, i32 90, i32 120, i32 151, i32 181, i32 212, i32 243, i32 273, i32 304, i32 334], align 4

; Function Attrs: nofree norecurse nosync nounwind readnone sspstrong uwtable
define dso_local i32 @f1(i32 %0, i32 %1) local_unnamed_addr #0 {
  %3 = add i32 %0, -2
  %4 = icmp ult i32 %3, 11
  br i1 %4, label %5, label %9

5:                                                ; preds = %2
  %6 = sext i32 %3 to i64
  %7 = getelementptr inbounds [11 x i32], [11 x i32]* @switch.table.main, i64 0, i64 %6
  %8 = load i32, i32* %7, align 4
  br label %9

9:                                                ; preds = %2, %5
  %10 = phi i32 [ %8, %5 ], [ 0, %2 ]
  %11 = add nsw i32 %10, %1
  ret i32 %11
}

; Function Attrs: argmemonly mustprogress nofree nosync nounwind willreturn
declare void @llvm.lifetime.start.p0i8(i64 immarg, i8* nocapture) #1

; Function Attrs: argmemonly mustprogress nofree nosync nounwind willreturn
declare void @llvm.lifetime.end.p0i8(i64 immarg, i8* nocapture) #1

; Function Attrs: nofree norecurse nosync nounwind readnone sspstrong uwtable
define dso_local i32 @f2(i32 %0, i32 %1) local_unnamed_addr #0 {
  %3 = add i32 %0, -2
  %4 = icmp ult i32 %3, 11
  br i1 %4, label %5, label %9

5:                                                ; preds = %2
  %6 = sext i32 %3 to i64
  %7 = getelementptr inbounds [11 x i32], [11 x i32]* @switch.table.main.2, i64 0, i64 %6
  %8 = load i32, i32* %7, align 4
  br label %9

9:                                                ; preds = %2, %5
  %10 = phi i32 [ %8, %5 ], [ 0, %2 ]
  %11 = add nsw i32 %10, %1
  ret i32 %11
}

; Function Attrs: nofree nounwind sspstrong uwtable
define dso_local void @main() local_unnamed_addr #2 {
  %1 = alloca i32, align 4
  %2 = alloca i32, align 4
  %3 = alloca i32, align 4
  %4 = bitcast i32* %1 to i8*
  call void @llvm.lifetime.start.p0i8(i64 4, i8* nonnull %4) #4
  %5 = bitcast i32* %2 to i8*
  call void @llvm.lifetime.start.p0i8(i64 4, i8* nonnull %5) #4
  %6 = bitcast i32* %3 to i8*
  call void @llvm.lifetime.start.p0i8(i64 4, i8* nonnull %6) #4
  %7 = call i32 (i8*, ...) @__isoc99_scanf(i8* getelementptr inbounds ([7 x i8], [7 x i8]* @.str, i64 0, i64 0), i32* nonnull %1, i32* nonnull %2, i32* nonnull %3)
  %8 = load i32, i32* %1, align 4, !tbaa !5
  %9 = load i32, i32* %2, align 4, !tbaa !5
  %10 = load i32, i32* %3, align 4, !tbaa !5
  %11 = add i32 %9, -2
  %12 = icmp ult i32 %11, 11
  br i1 %12, label %13, label %26

13:                                               ; preds = %0
  %14 = srem i32 %8, 100
  %15 = icmp ne i32 %14, 0
  %16 = and i32 %8, 3
  %17 = icmp eq i32 %16, 0
  %18 = and i1 %15, %17
  %19 = srem i32 %8, 400
  %20 = icmp eq i32 %19, 0
  %21 = select i1 %18, i1 true, i1 %20
  %22 = select i1 %21, [11 x i32]* @switch.table.main, [11 x i32]* @switch.table.main.2
  %23 = sext i32 %11 to i64
  %24 = getelementptr inbounds [11 x i32], [11 x i32]* %22, i64 0, i64 %23
  %25 = load i32, i32* %24, align 4
  br label %26

26:                                               ; preds = %0, %13
  %27 = phi i32 [ %25, %13 ], [ 0, %0 ]
  %28 = add nsw i32 %27, %10
  %29 = call i32 (i8*, ...) @printf(i8* nonnull dereferenceable(1) getelementptr inbounds ([3 x i8], [3 x i8]* @.str.1, i64 0, i64 0), i32 %28)
  call void @llvm.lifetime.end.p0i8(i64 4, i8* nonnull %6) #4
  call void @llvm.lifetime.end.p0i8(i64 4, i8* nonnull %5) #4
  call void @llvm.lifetime.end.p0i8(i64 4, i8* nonnull %4) #4
  ret void
}

; Function Attrs: nofree nounwind
declare noundef i32 @__isoc99_scanf(i8* nocapture noundef readonly, ...) local_unnamed_addr #3

; Function Attrs: nofree nounwind
declare noundef i32 @printf(i8* nocapture noundef readonly, ...) local_unnamed_addr #3


!llvm.module.flags = !{!0, !1, !2, !3}
!llvm.ident = !{!4}

!0 = !{i32 1, !"wchar_size", i32 4}
!1 = !{i32 7, !"PIC Level", i32 2}
!2 = !{i32 7, !"PIE Level", i32 2}
!3 = !{i32 7, !"uwtable", i32 1}
!4 = !{!"clang version 13.0.0"}
!5 = !{!6, !6, i64 0}
!6 = !{!"int", !7, i64 0}
!7 = !{!"omnipotent char", !8, i64 0}
!8 = !{!"Simple C/C++ TBAA"}
